target datalayout = "e-m:e-p270:32:32-p271:32:32-p272:64:64-i64:64-i128:128-f80:128-n8:16:32:64-S128"
target triple = "x86_64-pc-linux-gnu"

%struct.H5O_t = type { %struct.H5C_cache_entry_t, i64, i64, i8, i64, i8, i32, i8, i8, i64, i64, i64, i64, i32, i32, i64, i64, ptr, i64, i64, i64, i64, ptr, i8, ptr }
%struct.H5C_cache_entry_t = type { ptr, i64, i64, ptr, i8, ptr, i8, i8, i8, i8, i32, i8, i8, i8, i8, i8, i32, ptr, i32, i32, i32, i32, i32, i8, i8, ptr, ptr, ptr, ptr, ptr, ptr, i8, i32, i8, i64, ptr, i64, i64, i32, i8, i32, i32, i8, ptr, ptr, ptr }

@.str.1 = private unnamed_addr constant [103 x i8] c"generated/home/dtcxzyw/WorkSpace/Projects/compilers/llvm-opt-benchmark/bench/hdf5/hdf5/src/H5Oshared.h\00", align 1
@__func__.H5O__dtype_shared_decode = private unnamed_addr constant [25 x i8] c"H5O__dtype_shared_decode\00", align 1
@H5E_OHDR_g = external global i64, align 8
@H5E_CANTDECODE_g = external global i64, align 8
@.str.2 = private unnamed_addr constant [32 x i8] c"unable to decode shared message\00", align 1
@.str.3 = private unnamed_addr constant [32 x i8] c"unable to decode native message\00", align 1
@.str.4 = private unnamed_addr constant [102 x i8] c"generated/home/dtcxzyw/WorkSpace/Projects/compilers/llvm-opt-benchmark/bench/hdf5/hdf5/src/H5Odtype.c\00", align 1
@__func__.H5O__dtype_decode = private unnamed_addr constant [18 x i8] c"H5O__dtype_decode\00", align 1
@H5E_RESOURCE_g = external global i64, align 8
@H5E_NOSPACE_g = external global i64, align 8
@.str.5 = private unnamed_addr constant [25 x i8] c"memory allocation failed\00", align 1
@H5E_DATATYPE_g = external global i64, align 8
@.str.6 = private unnamed_addr constant [18 x i8] c"can't decode type\00", align 1
@H5E_CANTRELEASE_g = external global i64, align 8
@.str.7 = private unnamed_addr constant [28 x i8] c"can't release datatype info\00", align 1

; Function Attrs: nounwind uwtable
define internal ptr @H5O__dtype_decode(ptr noundef %0, ptr noundef %1, i32 noundef %2, ptr noundef %3, i64 noundef %4, ptr noundef %5) #0 {
  %7 = alloca ptr, align 8
  %8 = alloca ptr, align 8
  %9 = alloca i32, align 4
  %10 = alloca ptr, align 8
  %11 = alloca i64, align 8
  %12 = alloca ptr, align 8
  %13 = alloca i8, align 1
  %14 = alloca ptr, align 8
  %15 = alloca ptr, align 8
  %16 = alloca ptr, align 8
  %17 = alloca i8, align 1
  store ptr %0, ptr %7, align 8
  store ptr %1, ptr %8, align 8
  store i32 %2, ptr %9, align 4
  store ptr %3, ptr %10, align 8
  store i64 %4, ptr %11, align 8
  store ptr %5, ptr %12, align 8
  store ptr null, ptr %14, align 8
  %18 = load ptr, ptr %12, align 8
  %19 = load i64, ptr %11, align 8
  %20 = getelementptr inbounds i8, ptr %18, i64 %19
  %21 = getelementptr inbounds i8, ptr %20, i64 -1
  store ptr %21, ptr %15, align 8
  store ptr null, ptr %16, align 8
  store i8 0, ptr %17, align 1
  %22 = call ptr @H5T__alloc()
  store ptr %22, ptr %14, align 8
  %23 = icmp eq ptr null, %22
  br i1 %23, label %24, label %39

24:                                               ; preds = %6
  br label %25

25:                                               ; preds = %24
  br label %26

26:                                               ; preds = %25
  br label %27

27:                                               ; preds = %26
  %28 = load i64, ptr @H5E_RESOURCE_g, align 8
  %29 = load i64, ptr @H5E_NOSPACE_g, align 8
  %30 = call i32 (ptr, ptr, i32, i64, i64, ptr, ...) @H5E_printf_stack(ptr noundef @.str.4, ptr noundef @__func__.H5O__dtype_decode, i32 noundef 1404, i64 noundef %28, i64 noundef %29, ptr noundef @.str.5)
  br label %31

31:                                               ; preds = %27
  store i8 1, ptr %17, align 1
  %32 = load i8, ptr %17, align 1
  %33 = trunc i8 %32 to i1
  %34 = zext i1 %33 to i8
  store i8 %34, ptr %17, align 1
  br label %35

35:                                               ; preds = %31
  br label %36

36:                                               ; preds = %35
  store ptr null, ptr %16, align 8
  br label %97

37:                                               ; No predecessors!
  br label %38

38:                                               ; preds = %37
  br label %39

39:                                               ; preds = %38, %6
  %40 = load i64, ptr %11, align 8
  %41 = icmp eq i64 %40, -1
  %42 = select i1 %41, i32 1, i32 0
  %43 = icmp ne i32 %42, 0
  %44 = zext i1 %43 to i8
  store i8 %44, ptr %13, align 1
  %45 = load ptr, ptr %8, align 8
  %46 = icmp ne ptr %45, null
  br i1 %46, label %47, label %68

47:                                               ; preds = %39
  %48 = load ptr, ptr %8, align 8
  %49 = getelementptr inbounds %struct.H5O_t, ptr %48, i32 0, i32 7
  %50 = load i8, ptr %49, align 8
  %51 = zext i8 %50 to i32
  %52 = icmp eq i32 %51, 1
  %53 = select i1 %52, i32 0, i32 4
  %54 = icmp sgt i32 %53, 0
  br i1 %54, label %63, label %55

55:                                               ; preds = %47
  %56 = load ptr, ptr %7, align 8
  %57 = icmp ne ptr %56, null
  br i1 %57, label %58, label %67

58:                                               ; preds = %55
  %59 = load ptr, ptr %7, align 8
  %60 = call i64 @H5F_get_rfic_flags(ptr noundef %59)
  %61 = and i64 %60, 1
  %62 = icmp ne i64 %61, 0
  br i1 %62, label %63, label %67

63:                                               ; preds = %58, %47
  %64 = load ptr, ptr %10, align 8
  %65 = load i32, ptr %64, align 4
  %66 = or i32 %65, 4
  store i32 %66, ptr %64, align 4
  br label %67

67:                                               ; preds = %63, %58, %55
  br label %72

68:                                               ; preds = %39
  %69 = load ptr, ptr %10, align 8
  %70 = load i32, ptr %69, align 4
  %71 = or i32 %70, 4
  store i32 %71, ptr %69, align 4
  br label %72

72:                                               ; preds = %68, %67
  %73 = load ptr, ptr %10, align 8
  %74 = load ptr, ptr %14, align 8
  %75 = load i8, ptr %13, align 1
  %76 = trunc i8 %75 to i1
  %77 = load ptr, ptr %15, align 8
  %78 = call i32 @H5O__dtype_decode_helper(ptr noundef %73, ptr noundef %12, ptr noundef %74, i1 noundef zeroext %76, ptr noundef %77)
  %79 = icmp slt i32 %78, 0
  br i1 %79, label %80, label %95

80:                                               ; preds = %72
  br label %81

81:                                               ; preds = %80
  br label %82

82:                                               ; preds = %81
  br label %83

83:                                               ; preds = %82
  %84 = load i64, ptr @H5E_DATATYPE_g, align 8
  %85 = load i64, ptr @H5E_CANTDECODE_g, align 8
  %86 = call i32 (ptr, ptr, i32, i64, i64, ptr, ...) @H5E_printf_stack(ptr noundef @.str.4, ptr noundef @__func__.H5O__dtype_decode, i32 noundef 1426, i64 noundef %84, i64 noundef %85, ptr noundef @.str.6)
  br label %87

87:                                               ; preds = %83
  store i8 1, ptr %17, align 1
  %88 = load i8, ptr %17, align 1
  %89 = trunc i8 %88 to i1
  %90 = zext i1 %89 to i8
  store i8 %90, ptr %17, align 1
  br label %91

91:                                               ; preds = %87
  br label %92

92:                                               ; preds = %91
  store ptr null, ptr %16, align 8
  br label %97

93:                                               ; No predecessors!
  br label %94

94:                                               ; preds = %93
  br label %95

95:                                               ; preds = %94, %72
  %96 = load ptr, ptr %14, align 8
  store ptr %96, ptr %16, align 8
  br label %97

97:                                               ; preds = %95, %92, %36
  %98 = load ptr, ptr %16, align 8
  %99 = icmp ne ptr %98, null
  br i1 %99, label %118, label %100

100:                                              ; preds = %97
  %101 = load ptr, ptr %14, align 8
  %102 = call i32 @H5T_close_real(ptr noundef %101)
  %103 = icmp slt i32 %102, 0
  br i1 %103, label %104, label %117

104:                                              ; preds = %100
  br label %105

105:                                              ; preds = %104
  br label %106

106:                                              ; preds = %105
  br label %107

107:                                              ; preds = %106
  %108 = load i64, ptr @H5E_DATATYPE_g, align 8
  %109 = load i64, ptr @H5E_CANTRELEASE_g, align 8
  %110 = call i32 (ptr, ptr, i32, i64, i64, ptr, ...) @H5E_printf_stack(ptr noundef @.str.4, ptr noundef @__func__.H5O__dtype_decode, i32 noundef 1436, i64 noundef %108, i64 noundef %109, ptr noundef @.str.7)
  br label %111

111:                                              ; preds = %107
  store i8 1, ptr %17, align 1
  %112 = load i8, ptr %17, align 1
  %113 = trunc i8 %112 to i1
  %114 = zext i1 %113 to i8
  store i8 %114, ptr %17, align 1
  br label %115

115:                                              ; preds = %111
  store ptr null, ptr %16, align 8
  br label %116

116:                                              ; preds = %115
  br label %117

117:                                              ; preds = %116, %100
  br label %118

118:                                              ; preds = %117, %97
  %119 = load ptr, ptr %16, align 8
  ret ptr %119
}

; Function Attrs: nounwind uwtable
define internal ptr @H5O__dtype_shared_decode(ptr noundef %0, ptr noundef %1, i32 noundef %2, ptr noundef %3, i64 noundef %4, ptr noundef %5) #0 {
  %7 = alloca ptr, align 8
  %8 = alloca ptr, align 8
  %9 = alloca i32, align 4
  %10 = alloca ptr, align 8
  %11 = alloca i64, align 8
  %12 = alloca ptr, align 8
  %13 = alloca ptr, align 8
  %14 = alloca i8, align 1
  store ptr %0, ptr %7, align 8
  store ptr %1, ptr %8, align 8
  store i32 %2, ptr %9, align 4
  store ptr %3, ptr %10, align 8
  store i64 %4, ptr %11, align 8
  store ptr %5, ptr %12, align 8
  store ptr null, ptr %13, align 8
  store i8 0, ptr %14, align 1
  %15 = load i32, ptr %9, align 4
  %16 = and i32 %15, 2
  %17 = icmp ne i32 %16, 0
  br i1 %17, label %18, label %45

18:                                               ; preds = %6
  %19 = load ptr, ptr %7, align 8
  %20 = load ptr, ptr %8, align 8
  %21 = load ptr, ptr %10, align 8
  %22 = load i64, ptr %11, align 8
  %23 = load ptr, ptr %12, align 8
  %24 = call ptr @H5O__shared_decode(ptr noundef %19, ptr noundef %20, ptr noundef %21, i64 noundef %22, ptr noundef %23, ptr noundef @H5O_MSG_DTYPE)
  store ptr %24, ptr %13, align 8
  %25 = icmp eq ptr null, %24
  br i1 %25, label %26, label %41

26:                                               ; preds = %18
  br label %27

27:                                               ; preds = %26
  br label %28

28:                                               ; preds = %27
  br label %29

29:                                               ; preds = %28
  %30 = load i64, ptr @H5E_OHDR_g, align 8
  %31 = load i64, ptr @H5E_CANTDECODE_g, align 8
  %32 = call i32 (ptr, ptr, i32, i64, i64, ptr, ...) @H5E_printf_stack(ptr noundef @.str.1, ptr noundef @__func__.H5O__dtype_shared_decode, i32 noundef 61, i64 noundef %30, i64 noundef %31, ptr noundef @.str.2)
  br label %33

33:                                               ; preds = %29
  store i8 1, ptr %14, align 1
  %34 = load i8, ptr %14, align 1
  %35 = trunc i8 %34 to i1
  %36 = zext i1 %35 to i8
  store i8 %36, ptr %14, align 1
  br label %37

37:                                               ; preds = %33
  br label %38

38:                                               ; preds = %37
  store ptr null, ptr %13, align 8
  br label %71

39:                                               ; No predecessors!
  br label %40

40:                                               ; preds = %39
  br label %41

41:                                               ; preds = %40, %18
  %42 = load ptr, ptr %10, align 8
  %43 = load i32, ptr %42, align 4
  %44 = and i32 %43, -3
  store i32 %44, ptr %42, align 4
  br label %70

45:                                               ; preds = %6
  %46 = load ptr, ptr %7, align 8
  %47 = load ptr, ptr %8, align 8
  %48 = load i32, ptr %9, align 4
  %49 = load ptr, ptr %10, align 8
  %50 = load i64, ptr %11, align 8
  %51 = load ptr, ptr %12, align 8
  %52 = call ptr @H5O__dtype_decode(ptr noundef %46, ptr noundef %47, i32 noundef %48, ptr noundef %49, i64 noundef %50, ptr noundef %51)
  store ptr %52, ptr %13, align 8
  %53 = icmp eq ptr null, %52
  br i1 %53, label %54, label %69

54:                                               ; preds = %45
  br label %55

55:                                               ; preds = %54
  br label %56

56:                                               ; preds = %55
  br label %57

57:                                               ; preds = %56
  %58 = load i64, ptr @H5E_OHDR_g, align 8
  %59 = load i64, ptr @H5E_CANTDECODE_g, align 8
  %60 = call i32 (ptr, ptr, i32, i64, i64, ptr, ...) @H5E_printf_stack(ptr noundef @.str.1, ptr noundef @__func__.H5O__dtype_shared_decode, i32 noundef 74, i64 noundef %58, i64 noundef %59, ptr noundef @.str.3)
  br label %61

61:                                               ; preds = %57
  store i8 1, ptr %14, align 1
  %62 = load i8, ptr %14, align 1
  %63 = trunc i8 %62 to i1
  %64 = zext i1 %63 to i8
  store i8 %64, ptr %14, align 1
  br label %65

65:                                               ; preds = %61
  br label %66

66:                                               ; preds = %65
  store ptr null, ptr %13, align 8
  br label %71

67:                                               ; No predecessors!
  br label %68

68:                                               ; preds = %67
  br label %69

69:                                               ; preds = %68, %45
  br label %70

70:                                               ; preds = %69, %41
  br label %71

71:                                               ; preds = %70, %66, %38
  %72 = load ptr, ptr %13, align 8
  ret ptr %72
}