; Function Attrs: nounwind uwtable
define internal ptr @H5O__dtype_shared_decode(ptr noundef %0, ptr noundef %1, i32 noundef %2, ptr noundef %3, i64 noundef %4, ptr noundef %5) #0 {
  %7 = alloca ptr, align 8
  %8 = and i32 %2, 2
  %.not = icmp eq i32 %8, 0
  br i1 %.not, label %19, label %9

9:                                                ; preds = %6
  %10 = tail call ptr @H5O__shared_decode(ptr noundef %0, ptr noundef %1, ptr noundef %3, i64 noundef %4, ptr noundef %5, ptr noundef nonnull @H5O_MSG_DTYPE) #15
  %11 = icmp eq ptr %10, null
  br i1 %11, label %12, label %16

12:                                               ; preds = %9
  %13 = load i64, ptr @H5E_OHDR_g, align 8
  %14 = load i64, ptr @H5E_CANTDECODE_g, align 8
  %15 = tail call i32 (ptr, ptr, i32, i64, i64, ptr, ...) @H5E_printf_stack(ptr noundef nonnull @.str.1, ptr noundef nonnull @__func__.H5O__dtype_shared_decode, i32 noundef 61, i64 noundef %13, i64 noundef %14, ptr noundef nonnull @.str.2) #15
  br label %58

16:                                               ; preds = %9
  %17 = load i32, ptr %3, align 4
  %18 = and i32 %17, -3
  store i32 %18, ptr %3, align 4
  br label %58

19:                                               ; preds = %6
  call void @llvm.lifetime.start.p0(i64 8, ptr nonnull %7)
  store ptr %5, ptr %7, align 8
  %20 = getelementptr inbounds i8, ptr %5, i64 %4
  %21 = getelementptr inbounds i8, ptr %20, i64 -1
  %22 = tail call ptr @H5T__alloc() #15
  %23 = icmp eq ptr %22, null
  br i1 %23, label %24, label %28

24:                                               ; preds = %19
  %25 = load i64, ptr @H5E_RESOURCE_g, align 8
  %26 = load i64, ptr @H5E_NOSPACE_g, align 8
  %27 = tail call i32 (ptr, ptr, i32, i64, i64, ptr, ...) @H5E_printf_stack(ptr noundef nonnull @.str.4, ptr noundef nonnull @__func__.H5O__dtype_decode, i32 noundef 1404, i64 noundef %25, i64 noundef %26, ptr noundef nonnull @.str.5) #15
  br label %47

28:                                               ; preds = %19
  %29 = icmp eq i64 %4, -1
  %.not.i = icmp eq ptr %1, null
  br i1 %.not.i, label %.sink.split.i, label %30

30:                                               ; preds = %28
  %31 = getelementptr inbounds i8, ptr %1, i64 288
  %32 = load i8, ptr %31, align 8
  %33 = icmp eq i8 %32, 1
  br i1 %33, label %34, label %.sink.split.i

34:                                               ; preds = %30
  %.not22.i = icmp eq ptr %0, null
  br i1 %.not22.i, label %40, label %35

35:                                               ; preds = %34
  %36 = tail call i64 @H5F_get_rfic_flags(ptr noundef nonnull %0) #15
  %37 = and i64 %36, 1
  %.not23.i = icmp eq i64 %37, 0
  br i1 %.not23.i, label %40, label %.sink.split.i

.sink.split.i:                                    ; preds = %35, %30, %28
  %38 = load i32, ptr %3, align 4
  %39 = or i32 %38, 4
  store i32 %39, ptr %3, align 4
  br label %40

40:                                               ; preds = %.sink.split.i, %35, %34
  %41 = call fastcc i32 @H5O__dtype_decode_helper(ptr noundef %3, ptr noundef nonnull %7, ptr noundef nonnull %22, i1 noundef zeroext %29, ptr noundef nonnull %21)
  %42 = icmp slt i32 %41, 0
  br i1 %42, label %43, label %H5O__dtype_decode.exit

43:                                               ; preds = %40
  %44 = load i64, ptr @H5E_DATATYPE_g, align 8
  %45 = load i64, ptr @H5E_CANTDECODE_g, align 8
  %46 = call i32 (ptr, ptr, i32, i64, i64, ptr, ...) @H5E_printf_stack(ptr noundef nonnull @.str.4, ptr noundef nonnull @__func__.H5O__dtype_decode, i32 noundef 1426, i64 noundef %44, i64 noundef %45, ptr noundef nonnull @.str.6) #15
  br label %47

47:                                               ; preds = %43, %24
  %48 = call i32 @H5T_close_real(ptr noundef %22) #15
  %49 = icmp slt i32 %48, 0
  br i1 %49, label %50, label %54

50:                                               ; preds = %47
  %51 = load i64, ptr @H5E_DATATYPE_g, align 8
  %52 = load i64, ptr @H5E_CANTRELEASE_g, align 8
  %53 = call i32 (ptr, ptr, i32, i64, i64, ptr, ...) @H5E_printf_stack(ptr noundef nonnull @.str.4, ptr noundef nonnull @__func__.H5O__dtype_decode, i32 noundef 1436, i64 noundef %51, i64 noundef %52, ptr noundef nonnull @.str.7) #15
  br label %54

H5O__dtype_decode.exit:                           ; preds = %40
  call void @llvm.lifetime.end.p0(i64 8, ptr nonnull %7)
  br label %58

54:                                               ; preds = %50, %47
  call void @llvm.lifetime.end.p0(i64 8, ptr nonnull %7)
  %55 = load i64, ptr @H5E_OHDR_g, align 8
  %56 = load i64, ptr @H5E_CANTDECODE_g, align 8
  %57 = call i32 (ptr, ptr, i32, i64, i64, ptr, ...) @H5E_printf_stack(ptr noundef nonnull @.str.1, ptr noundef nonnull @__func__.H5O__dtype_shared_decode, i32 noundef 74, i64 noundef %55, i64 noundef %56, ptr noundef nonnull @.str.3) #15
  br label %58

58:                                               ; preds = %H5O__dtype_decode.exit, %16, %54, %12
  %.0 = phi ptr [ null, %12 ], [ %10, %16 ], [ null, %54 ], [ %22, %H5O__dtype_decode.exit ]
  ret ptr %.0
}